target datalayout = "e-m:e-p270:32:32-p271:32:32-p272:64:64-i64:64-i128:128-f80:128-n8:16:32:64-S128"
target triple = "x86_64-pc-linux-gnu"

; Function Attrs: mustprogress nounwind uwtable
define hidden noundef i32 @_ZN5zxing6common11StringUtils16shift_jis_to_jisEPKhPiS4_(ptr noundef %0, ptr noundef %1, ptr noundef %2) #2 align 2 {
  %4 = alloca ptr, align 8
  %5 = alloca ptr, align 8
  %6 = alloca ptr, align 8
  %7 = alloca i32, align 4
  %8 = alloca i8, align 1
  %9 = alloca i8, align 1
  %10 = alloca i32, align 4
  %11 = alloca i32, align 4
  store ptr %0, ptr %4, align 8, !tbaa !3
  store ptr %1, ptr %5, align 8, !tbaa !36
  store ptr %2, ptr %6, align 8, !tbaa !36
  call void @llvm.lifetime.start.p0(i64 4, ptr %7) #14
  store i32 0, ptr %7, align 4, !tbaa !8
  call void @llvm.lifetime.start.p0(i64 1, ptr %8) #14
  %12 = load ptr, ptr %4, align 8, !tbaa !3
  %13 = getelementptr inbounds i8, ptr %12, i64 0
  %14 = load i8, ptr %13, align 1, !tbaa !13
  store i8 %14, ptr %8, align 1, !tbaa !13
  call void @llvm.lifetime.start.p0(i64 1, ptr %9) #14
  %15 = load ptr, ptr %4, align 8, !tbaa !3
  %16 = getelementptr inbounds i8, ptr %15, i64 1
  %17 = load i8, ptr %16, align 1, !tbaa !13
  store i8 %17, ptr %9, align 1, !tbaa !13
  call void @llvm.lifetime.start.p0(i64 4, ptr %10) #14
  store i32 0, ptr %10, align 4, !tbaa !8
  call void @llvm.lifetime.start.p0(i64 4, ptr %11) #14
  store i32 0, ptr %11, align 4, !tbaa !8
  %18 = load i8, ptr %8, align 1, !tbaa !13
  %19 = zext i8 %18 to i32
  %20 = icmp sge i32 %19, 129
  br i1 %20, label %21, label %25

21:                                               ; preds = %3
  %22 = load i8, ptr %8, align 1, !tbaa !13
  %23 = zext i8 %22 to i32
  %24 = icmp sle i32 %23, 132
  br i1 %24, label %33, label %25

25:                                               ; preds = %21, %3
  %26 = load i8, ptr %8, align 1, !tbaa !13
  %27 = zext i8 %26 to i32
  %28 = icmp sge i32 %27, 135
  br i1 %28, label %29, label %73

29:                                               ; preds = %25
  %30 = load i8, ptr %8, align 1, !tbaa !13
  %31 = zext i8 %30 to i32
  %32 = icmp sle i32 %31, 159
  br i1 %32, label %33, label %73

33:                                               ; preds = %29, %21
  %34 = load i8, ptr %8, align 1, !tbaa !13
  %35 = zext i8 %34 to i32
  %36 = sub nsw i32 %35, 112
  %37 = mul nsw i32 2, %36
  %38 = sub nsw i32 %37, 1
  store i32 %38, ptr %10, align 4, !tbaa !8
  %39 = load i8, ptr %9, align 1, !tbaa !13
  %40 = zext i8 %39 to i32
  %41 = icmp sge i32 %40, 64
  br i1 %41, label %42, label %56

42:                                               ; preds = %33
  %43 = load i8, ptr %9, align 1, !tbaa !13
  %44 = zext i8 %43 to i32
  %45 = icmp sle i32 %44, 158
  br i1 %45, label %46, label %56

46:                                               ; preds = %42
  %47 = load i8, ptr %9, align 1, !tbaa !13
  %48 = zext i8 %47 to i32
  %49 = sub nsw i32 %48, 31
  store i32 %49, ptr %11, align 4, !tbaa !8
  %50 = load i32, ptr %11, align 4, !tbaa !8
  %51 = icmp sgt i32 %50, 95
  br i1 %51, label %52, label %55

52:                                               ; preds = %46
  %53 = load i32, ptr %11, align 4, !tbaa !8
  %54 = sub nsw i32 %53, 1
  store i32 %54, ptr %11, align 4, !tbaa !8
  br label %55

55:                                               ; preds = %52, %46
  store i32 1, ptr %7, align 4, !tbaa !8
  br label %72

56:                                               ; preds = %42, %33
  %57 = load i8, ptr %9, align 1, !tbaa !13
  %58 = zext i8 %57 to i32
  %59 = icmp sge i32 %58, 159
  br i1 %59, label %60, label %70

60:                                               ; preds = %56
  %61 = load i8, ptr %9, align 1, !tbaa !13
  %62 = zext i8 %61 to i32
  %63 = icmp sle i32 %62, 252
  br i1 %63, label %64, label %70

64:                                               ; preds = %60
  %65 = load i8, ptr %9, align 1, !tbaa !13
  %66 = zext i8 %65 to i32
  %67 = sub nsw i32 %66, 126
  store i32 %67, ptr %11, align 4, !tbaa !8
  %68 = load i32, ptr %10, align 4, !tbaa !8
  %69 = add nsw i32 %68, 1
  store i32 %69, ptr %10, align 4, !tbaa !8
  store i32 1, ptr %7, align 4, !tbaa !8
  br label %71

70:                                               ; preds = %60, %56
  br label %71

71:                                               ; preds = %70, %64
  br label %72

72:                                               ; preds = %71, %55
  br label %122

73:                                               ; preds = %29, %25
  %74 = load i8, ptr %8, align 1, !tbaa !13
  %75 = zext i8 %74 to i32
  %76 = icmp sge i32 %75, 224
  br i1 %76, label %77, label %120

77:                                               ; preds = %73
  %78 = load i8, ptr %8, align 1, !tbaa !13
  %79 = zext i8 %78 to i32
  %80 = icmp sle i32 %79, 239
  br i1 %80, label %81, label %120

81:                                               ; preds = %77
  %82 = load i8, ptr %8, align 1, !tbaa !13
  %83 = zext i8 %82 to i32
  %84 = sub nsw i32 %83, 176
  %85 = mul nsw i32 2, %84
  %86 = sub nsw i32 %85, 1
  store i32 %86, ptr %10, align 4, !tbaa !8
  %87 = load i8, ptr %9, align 1, !tbaa !13
  %88 = zext i8 %87 to i32
  %89 = icmp sge i32 %88, 64
  br i1 %89, label %90, label %104

90:                                               ; preds = %81
  %91 = load i8, ptr %9, align 1, !tbaa !13
  %92 = zext i8 %91 to i32
  %93 = icmp sle i32 %92, 158
  br i1 %93, label %94, label %104

94:                                               ; preds = %90
  %95 = load i8, ptr %9, align 1, !tbaa !13
  %96 = zext i8 %95 to i32
  %97 = sub nsw i32 %96, 31
  store i32 %97, ptr %11, align 4, !tbaa !8
  %98 = load i32, ptr %11, align 4, !tbaa !8
  %99 = icmp sgt i32 %98, 95
  br i1 %99, label %100, label %103

100:                                              ; preds = %94
  %101 = load i32, ptr %11, align 4, !tbaa !8
  %102 = sub nsw i32 %101, 1
  store i32 %102, ptr %11, align 4, !tbaa !8
  br label %103

103:                                              ; preds = %100, %94
  store i32 1, ptr %7, align 4, !tbaa !8
  br label %119

104:                                              ; preds = %90, %81
  %105 = load i8, ptr %9, align 1, !tbaa !13
  %106 = zext i8 %105 to i32
  %107 = icmp sge i32 %106, 159
  br i1 %107, label %108, label %118

108:                                              ; preds = %104
  %109 = load i8, ptr %9, align 1, !tbaa !13
  %110 = zext i8 %109 to i32
  %111 = icmp sle i32 %110, 252
  br i1 %111, label %112, label %118

112:                                              ; preds = %108
  %113 = load i8, ptr %9, align 1, !tbaa !13
  %114 = zext i8 %113 to i32
  %115 = sub nsw i32 %114, 126
  store i32 %115, ptr %11, align 4, !tbaa !8
  %116 = load i32, ptr %10, align 4, !tbaa !8
  %117 = add nsw i32 %116, 1
  store i32 %117, ptr %10, align 4, !tbaa !8
  store i32 1, ptr %7, align 4, !tbaa !8
  br label %118

118:                                              ; preds = %112, %108, %104
  br label %119

119:                                              ; preds = %118, %103
  br label %121

120:                                              ; preds = %77, %73
  br label %121

121:                                              ; preds = %120, %119
  br label %122

122:                                              ; preds = %121, %72
  %123 = load i32, ptr %10, align 4, !tbaa !8
  %124 = load ptr, ptr %5, align 8, !tbaa !36
  store i32 %123, ptr %124, align 4, !tbaa !8
  %125 = load i32, ptr %11, align 4, !tbaa !8
  %126 = load ptr, ptr %6, align 8, !tbaa !36
  store i32 %125, ptr %126, align 4, !tbaa !8
  %127 = load i32, ptr %7, align 4, !tbaa !8
  call void @llvm.lifetime.end.p0(i64 4, ptr %11) #14
  call void @llvm.lifetime.end.p0(i64 4, ptr %10) #14
  call void @llvm.lifetime.end.p0(i64 1, ptr %9) #14
  call void @llvm.lifetime.end.p0(i64 1, ptr %8) #14
  call void @llvm.lifetime.end.p0(i64 4, ptr %7) #14
  ret i32 %127
}