; Function Attrs: mustprogress nofree norecurse nosync nounwind willreturn memory(argmem: readwrite) uwtable
define hidden noundef range(i32 0, 2) i32 @_ZN5zxing6common11StringUtils16shift_jis_to_jisEPKhPiS4_(ptr noundef readonly captures(none) %0, ptr noundef writeonly captures(none) initializes((0, 4)) %1, ptr noundef writeonly captures(none) initializes((0, 4)) %2) local_unnamed_addr #8 align 2 {
  %4 = load i8, ptr %0, align 1, !tbaa !12
  %5 = getelementptr inbounds nuw i8, ptr %0, i64 1
  %6 = load i8, ptr %5, align 1, !tbaa !12
  %7 = zext i8 %4 to i32
  %8 = add i8 %4, 127
  %or.cond = icmp ult i8 %8, 4
  %9 = add i8 %4, 121
  %or.cond5 = icmp ult i8 %9, 25
  %or.cond63 = or i1 %or.cond, %or.cond5
  br i1 %or.cond63, label %10, label %22

10:                                               ; preds = %3
  %11 = shl nuw nsw i32 %7, 1
  %12 = add nsw i32 %11, -224
  %13 = add nsw i32 %11, -225
  %14 = zext i8 %6 to i32
  %15 = add i8 %6, -64
  %or.cond8 = icmp ult i8 %15, 95
  br i1 %or.cond8, label %16, label %18

16:                                               ; preds = %10
  %17 = icmp ugt i8 %6, 126
  %spec.select.v = select i1 %17, i32 -32, i32 -31
  %spec.select = add nsw i32 %spec.select.v, %14
  br label %36

18:                                               ; preds = %10
  %19 = add i8 %6, 97
  %or.cond11 = icmp ult i8 %19, 94
  br i1 %or.cond11, label %20, label %36

20:                                               ; preds = %18
  %21 = add nsw i32 %14, -126
  br label %36

22:                                               ; preds = %3
  %23 = and i8 %4, -16
  %or.cond14 = icmp eq i8 %23, -32
  br i1 %or.cond14, label %24, label %36

24:                                               ; preds = %22
  %25 = shl nuw nsw i32 %7, 1
  %26 = add nsw i32 %25, -352
  %27 = add nsw i32 %25, -353
  %28 = zext i8 %6 to i32
  %29 = add i8 %6, -64
  %or.cond17 = icmp ult i8 %29, 95
  br i1 %or.cond17, label %30, label %32

30:                                               ; preds = %24
  %31 = icmp ugt i8 %6, 126
  %spec.select64.v = select i1 %31, i32 -32, i32 -31
  %spec.select64 = add nsw i32 %spec.select64.v, %28
  br label %36

32:                                               ; preds = %24
  %33 = add i8 %6, 97
  %or.cond20 = icmp ult i8 %33, 94
  br i1 %or.cond20, label %34, label %36

34:                                               ; preds = %32
  %35 = add nsw i32 %28, -126
  br label %36

36:                                               ; preds = %32, %34, %30, %22, %16, %18, %20
  %.053 = phi i32 [ 1, %16 ], [ 1, %20 ], [ 0, %18 ], [ 1, %30 ], [ 1, %34 ], [ 0, %32 ], [ 0, %22 ]
  %.052 = phi i32 [ %13, %16 ], [ %12, %20 ], [ %13, %18 ], [ %27, %30 ], [ %26, %34 ], [ %27, %32 ], [ 0, %22 ]
  %.1 = phi i32 [ %spec.select, %16 ], [ %21, %20 ], [ 0, %18 ], [ %spec.select64, %30 ], [ %35, %34 ], [ 0, %32 ], [ 0, %22 ]
  store i32 %.052, ptr %1, align 4, !tbaa !23
  store i32 %.1, ptr %2, align 4, !tbaa !23
  ret i32 %.053
}